; Function Attrs: nounwind uwtable
define ptr @l_Lean_Meta_visitLet_visit___at_Lean_Meta_forEachExpr_x27_visit___spec__9___rarg___lambda__2(ptr noundef %0, ptr noundef %1, ptr noundef %2, ptr noundef %3, ptr noundef %4, ptr noundef %5, ptr noundef %6, ptr noundef %7, ptr noundef %8, ptr noundef %9, ptr readnone captures(none) %10) local_unnamed_addr #0 {
  %12 = ptrtoint ptr %3 to i64
  %13 = and i64 %12, 1
  %.not = icmp eq i64 %13, 0
  br i1 %.not, label %14, label %lean_inc.exit26

14:                                               ; preds = %11
  %.val.i = load i32, ptr %3, align 4, !tbaa !4
  %15 = icmp sgt i32 %.val.i, 0
  br i1 %15, label %16, label %18, !prof !13

16:                                               ; preds = %14
  %17 = add nuw i32 %.val.i, 1
  store i32 %17, ptr %3, align 4, !tbaa !4
  br label %lean_inc.exit26

18:                                               ; preds = %14
  %.not.i27 = icmp eq i32 %.val.i, 0
  br i1 %.not.i27, label %lean_inc.exit26, label %19

19:                                               ; preds = %18
  tail call void @lean_inc_ref_cold(ptr noundef nonnull %3) #4
  br label %lean_inc.exit26

lean_inc.exit26:                                  ; preds = %19, %18, %16, %11
  %20 = ptrtoint ptr %2 to i64
  %21 = and i64 %20, 1
  %.not34 = icmp eq i64 %21, 0
  br i1 %.not34, label %22, label %lean_inc.exit25

22:                                               ; preds = %lean_inc.exit26
  %.val.i28 = load i32, ptr %2, align 4, !tbaa !4
  %23 = icmp sgt i32 %.val.i28, 0
  br i1 %23, label %24, label %26, !prof !13

24:                                               ; preds = %22
  %25 = add nuw i32 %.val.i28, 1
  store i32 %25, ptr %2, align 4, !tbaa !4
  br label %lean_inc.exit25

26:                                               ; preds = %22
  %.not.i29 = icmp eq i32 %.val.i28, 0
  br i1 %.not.i29, label %lean_inc.exit25, label %27

27:                                               ; preds = %26
  tail call void @lean_inc_ref_cold(ptr noundef nonnull %2) #4
  br label %lean_inc.exit25

lean_inc.exit25:                                  ; preds = %27, %26, %24, %lean_inc.exit26
  %28 = ptrtoint ptr %1 to i64
  %29 = and i64 %28, 1
  %.not35 = icmp eq i64 %29, 0
  br i1 %.not35, label %30, label %lean_inc.exit

30:                                               ; preds = %lean_inc.exit25
  %.val.i31 = load i32, ptr %1, align 4, !tbaa !4
  %31 = icmp sgt i32 %.val.i31, 0
  br i1 %31, label %32, label %34, !prof !13

32:                                               ; preds = %30
  %33 = add nuw i32 %.val.i31, 1
  store i32 %33, ptr %1, align 4, !tbaa !4
  br label %lean_inc.exit

34:                                               ; preds = %30
  %.not.i32 = icmp eq i32 %.val.i31, 0
  br i1 %.not.i32, label %lean_inc.exit, label %35

35:                                               ; preds = %34
  tail call void @lean_inc_ref_cold(ptr noundef nonnull %1) #4
  br label %lean_inc.exit

lean_inc.exit:                                    ; preds = %35, %34, %32, %lean_inc.exit25
  tail call void @lean_inc_heartbeat() #4
  %36 = tail call noalias ptr @mi_malloc_small(i64 noundef 72) #4
  %37 = icmp eq ptr %36, null
  br i1 %37, label %38, label %lean_alloc_closure.exit

38:                                               ; preds = %lean_inc.exit
  tail call void @lean_internal_panic_out_of_memory() #5
  unreachable

lean_alloc_closure.exit:                          ; preds = %lean_inc.exit
  %39 = getelementptr inbounds nuw i8, ptr %36, i64 4
  store i32 1, ptr %36, align 4, !tbaa !4
  store i32 -184549304, ptr %39, align 4
  %40 = getelementptr inbounds nuw i8, ptr %36, i64 8
  store ptr @l_Lean_Meta_visitLet_visit___at_Lean_Meta_forEachExpr_x27_visit___spec__9___rarg___lambda__1, ptr %40, align 8, !tbaa !9
  %41 = getelementptr inbounds nuw i8, ptr %36, i64 16
  store i16 8, ptr %41, align 8, !tbaa !11
  %42 = getelementptr inbounds nuw i8, ptr %36, i64 18
  store i16 6, ptr %42, align 2, !tbaa !11
  %43 = getelementptr inbounds nuw i8, ptr %36, i64 24
  store ptr %0, ptr %43, align 8, !tbaa !9
  %44 = getelementptr inbounds nuw i8, ptr %36, i64 32
  store ptr %1, ptr %44, align 8, !tbaa !9
  %45 = getelementptr inbounds nuw i8, ptr %36, i64 40
  store ptr %2, ptr %45, align 8, !tbaa !9
  %46 = getelementptr inbounds nuw i8, ptr %36, i64 48
  store ptr %3, ptr %46, align 8, !tbaa !9
  %47 = getelementptr inbounds nuw i8, ptr %36, i64 56
  store ptr %4, ptr %47, align 8, !tbaa !9
  %48 = getelementptr inbounds nuw i8, ptr %36, i64 64
  store ptr %5, ptr %48, align 8, !tbaa !9
  %49 = tail call ptr @l_Lean_Meta_withLetDecl___at_Lean_Meta_forEachExpr_x27_visit___spec__10___rarg(ptr noundef %1, ptr noundef %2, ptr poison, ptr nonnull poison, ptr noundef %6, ptr noundef %7, ptr noundef %8, ptr noundef nonnull %36, i8 noundef zeroext 0, ptr noundef %9)
  br i1 %.not, label %50, label %lean_dec.exit

50:                                               ; preds = %lean_alloc_closure.exit
  %51 = load i32, ptr %3, align 4, !tbaa !4
  %52 = icmp sgt i32 %51, 1
  br i1 %52, label %53, label %55, !prof !13

53:                                               ; preds = %50
  %54 = add nsw i32 %51, -1
  store i32 %54, ptr %3, align 4, !tbaa !4
  br label %lean_dec.exit

55:                                               ; preds = %50
  %.not.i = icmp eq i32 %51, 0
  br i1 %.not.i, label %lean_dec.exit, label %56

56:                                               ; preds = %55
  tail call void @lean_dec_ref_cold(ptr noundef nonnull %3) #4
  br label %lean_dec.exit

lean_dec.exit:                                    ; preds = %56, %55, %53, %lean_alloc_closure.exit
  ret ptr %49
}